target datalayout = "e-m:e-p270:32:32-p271:32:32-p272:64:64-i64:64-i128:128-f80:128-n8:16:32:64-S128"
target triple = "x86_64-pc-linux-gnu"

%struct.winsize = type { i16, i16, i16, i16 }

@stdout = external global ptr, align 8

; Function Attrs: nounwind uwtable
define i32 @phpdbg_get_terminal_width() #0 {
  %1 = alloca i32, align 4
  %2 = alloca %struct.winsize, align 2
  %3 = load ptr, ptr @stdout, align 8
  %4 = call i32 @fileno(ptr noundef %3) #13
  %5 = call i32 (i32, i64, ...) @ioctl(i32 noundef %4, i64 noundef 21523, ptr noundef %2) #13
  %6 = icmp eq i32 %5, 0
  br i1 %6, label %7, label %11

7:                                                ; preds = %0
  %8 = getelementptr inbounds %struct.winsize, ptr %2, i32 0, i32 1
  %9 = load i16, ptr %8, align 2
  %10 = zext i16 %9 to i32
  br label %12

11:                                               ; preds = %0
  br label %12

12:                                               ; preds = %11, %7
  %13 = phi i32 [ %10, %7 ], [ 80, %11 ]
  store i32 %13, ptr %1, align 4
  %14 = load i32, ptr %1, align 4
  ret i32 %14
}