; Function Attrs: nounwind uwtable
define i32 @phpdbg_get_terminal_width() local_unnamed_addr #3 {
  %1 = alloca %struct.winsize, align 2
  %2 = load ptr, ptr @stdout, align 8
  %3 = tail call i32 @fileno(ptr noundef %2) #25
  %4 = call i32 (i32, i64, ...) @ioctl(i32 noundef %3, i64 noundef 21523, ptr noundef nonnull %1) #25
  %5 = icmp eq i32 %4, 0
  %6 = getelementptr inbounds i8, ptr %1, i64 2
  %7 = load i16, ptr %6, align 2
  %8 = zext i16 %7 to i32
  %9 = select i1 %5, i32 %8, i32 80
  ret i32 %9
}